; Function Attrs: mustprogress nofree norecurse nosync nounwind willreturn memory(readwrite, inaccessiblemem: none) uwtable
define noundef zeroext i1 @_ZN3net16SpdyFrameBuilder18WriteStringPiece16ERKN4base16BasicStringPieceINSt7__cxx1112basic_stringIcSt11char_traitsIcESaIcEEEEE(ptr noundef nonnull align 8 captures(none) dereferenceable(36) %0, ptr noundef nonnull readonly align 8 captures(none) dereferenceable(16) %1) local_unnamed_addr #8 align 2 {
  %3 = getelementptr inbounds nuw i8, ptr %1, i64 8
  %4 = load i64, ptr %3, align 8, !tbaa !77
  %5 = icmp ugt i64 %4, 65535
  br i1 %5, label %_ZN3net16SpdyFrameBuilder11WriteUInt16Et.exit, label %6

6:                                                ; preds = %2
  %7 = getelementptr inbounds nuw i8, ptr %0, i64 24
  %8 = load i64, ptr %7, align 8, !tbaa !19
  %9 = getelementptr inbounds nuw i8, ptr %0, i64 16
  %10 = load i64, ptr %9, align 8, !tbaa !20
  %11 = add i64 %8, 2
  %12 = add i64 %11, %10
  %13 = getelementptr inbounds nuw i8, ptr %0, i64 8
  %14 = load i64, ptr %13, align 8, !tbaa !8
  %.not.i.i.not = icmp ugt i64 %12, %14
  br i1 %.not.i.i.not, label %_ZN3net16SpdyFrameBuilder11WriteUInt16Et.exit, label %_ZNK3net16SpdyFrameBuilder8CanWriteEm.exit.i.i.i

_ZNK3net16SpdyFrameBuilder8CanWriteEm.exit.i.i.i: ; preds = %6
  %15 = trunc nuw i64 %4 to i16
  %16 = tail call noundef i16 @llvm.bswap.i16(i16 %15)
  %17 = load ptr, ptr %0, align 8
  %18 = getelementptr inbounds nuw i8, ptr %17, i64 %8
  %19 = getelementptr inbounds nuw i8, ptr %18, i64 %10
  store i16 %16, ptr %19, align 1
  %20 = load i64, ptr %7, align 8, !tbaa !19
  %21 = load i64, ptr %9, align 8, !tbaa !20
  %22 = add i64 %21, 2
  %23 = add i64 %22, %20
  %24 = load i64, ptr %13, align 8, !tbaa !8
  %.not.i9.i.i = icmp ugt i64 %23, %24
  br i1 %.not.i9.i.i, label %26, label %25

25:                                               ; preds = %_ZNK3net16SpdyFrameBuilder8CanWriteEm.exit.i.i.i
  store i64 %22, ptr %9, align 8, !tbaa !20
  br label %26

26:                                               ; preds = %_ZNK3net16SpdyFrameBuilder8CanWriteEm.exit.i.i.i, %25
  %27 = phi i64 [ %21, %_ZNK3net16SpdyFrameBuilder8CanWriteEm.exit.i.i.i ], [ %22, %25 ]
  %28 = load i64, ptr %3, align 8, !tbaa !77
  %29 = and i64 %28, 65535
  %30 = add i64 %20, %29
  %31 = add i64 %30, %27
  %.not.i = icmp ugt i64 %31, %24
  br i1 %.not.i, label %_ZN3net16SpdyFrameBuilder11WriteUInt16Et.exit, label %_ZNK3net16SpdyFrameBuilder8CanWriteEm.exit.i.i

_ZNK3net16SpdyFrameBuilder8CanWriteEm.exit.i.i:   ; preds = %26
  %32 = load ptr, ptr %1, align 8, !tbaa !79
  %33 = load ptr, ptr %0, align 8
  %34 = getelementptr inbounds nuw i8, ptr %33, i64 %20
  %35 = getelementptr inbounds nuw i8, ptr %34, i64 %27
  tail call void @llvm.memcpy.p0.p0.i64(ptr align 1 %35, ptr readonly align 1 %32, i64 %29, i1 false)
  %36 = load i64, ptr %7, align 8, !tbaa !19
  %37 = load i64, ptr %9, align 8, !tbaa !20
  %38 = add i64 %37, %29
  %39 = add i64 %38, %36
  %40 = load i64, ptr %13, align 8, !tbaa !8
  %.not.i9.i = icmp ugt i64 %39, %40
  br i1 %.not.i9.i, label %_ZN3net16SpdyFrameBuilder11WriteUInt16Et.exit, label %41

41:                                               ; preds = %_ZNK3net16SpdyFrameBuilder8CanWriteEm.exit.i.i
  store i64 %38, ptr %9, align 8, !tbaa !20
  br label %_ZN3net16SpdyFrameBuilder11WriteUInt16Et.exit

_ZN3net16SpdyFrameBuilder11WriteUInt16Et.exit:    ; preds = %41, %_ZNK3net16SpdyFrameBuilder8CanWriteEm.exit.i.i, %26, %6, %2
  %.0 = phi i1 [ false, %2 ], [ false, %6 ], [ false, %26 ], [ true, %_ZNK3net16SpdyFrameBuilder8CanWriteEm.exit.i.i ], [ true, %41 ]
  ret i1 %.0
}